target datalayout = "e-m:e-p270:32:32-p271:32:32-p272:64:64-i64:64-i128:128-f80:128-n8:16:32:64-S128"
target triple = "x86_64-pc-linux-gnu"

%"class.Imath_3_2::Box" = type { %"class.Imath_3_2::Vec2", %"class.Imath_3_2::Vec2" }
%"class.Imath_3_2::Vec2" = type { i32, i32 }

; Function Attrs: mustprogress uwtable
define hidden noundef i32 @_ZN7Imf_3_431getScanlineChunkOffsetTableSizeERKNS_6HeaderE(ptr noundef nonnull align 8 dereferenceable(49) %0) #6 {
  %2 = alloca ptr, align 8
  %3 = alloca ptr, align 8
  %4 = alloca i64, align 8
  %5 = alloca i64, align 8
  store ptr %0, ptr %2, align 8, !tbaa !16
  call void @llvm.lifetime.start.p0(i64 8, ptr %3) #3
  %6 = load ptr, ptr %2, align 8, !tbaa !16
  %7 = call noundef nonnull align 4 dereferenceable(16) ptr @_ZNK7Imf_3_46Header10dataWindowEv(ptr noundef nonnull align 8 dereferenceable(49) %6)
  store ptr %7, ptr %3, align 8, !tbaa !20
  call void @llvm.lifetime.start.p0(i64 8, ptr %4) #3
  %8 = load ptr, ptr %2, align 8, !tbaa !16
  %9 = call noundef nonnull align 4 dereferenceable(4) ptr @_ZNK7Imf_3_46Header11compressionEv(ptr noundef nonnull align 8 dereferenceable(49) %8)
  %10 = load i32, ptr %9, align 4, !tbaa !198
  %11 = call noundef i32 @_ZN7Imf_3_416numLinesInBufferENS_11CompressionE(i32 noundef %10)
  %12 = sext i32 %11 to i64
  store i64 %12, ptr %4, align 8, !tbaa !34
  call void @llvm.lifetime.start.p0(i64 8, ptr %5) #3
  %13 = load ptr, ptr %3, align 8, !tbaa !20
  %14 = getelementptr inbounds nuw %"class.Imath_3_2::Box", ptr %13, i32 0, i32 1
  %15 = getelementptr inbounds nuw %"class.Imath_3_2::Vec2", ptr %14, i32 0, i32 1
  %16 = load i32, ptr %15, align 4, !tbaa !24
  %17 = sext i32 %16 to i64
  %18 = load ptr, ptr %3, align 8, !tbaa !20
  %19 = getelementptr inbounds nuw %"class.Imath_3_2::Box", ptr %18, i32 0, i32 0
  %20 = getelementptr inbounds nuw %"class.Imath_3_2::Vec2", ptr %19, i32 0, i32 1
  %21 = load i32, ptr %20, align 4, !tbaa !27
  %22 = sext i32 %21 to i64
  %23 = sub nsw i64 %17, %22
  %24 = load i64, ptr %4, align 8, !tbaa !34
  %25 = add nsw i64 %23, %24
  %26 = load i64, ptr %4, align 8, !tbaa !34
  %27 = sdiv i64 %25, %26
  store i64 %27, ptr %5, align 8, !tbaa !34
  %28 = load i64, ptr %5, align 8, !tbaa !34
  %29 = trunc i64 %28 to i32
  call void @llvm.lifetime.end.p0(i64 8, ptr %5) #3
  call void @llvm.lifetime.end.p0(i64 8, ptr %4) #3
  call void @llvm.lifetime.end.p0(i64 8, ptr %3) #3
  ret i32 %29
}