; Function Attrs: mustprogress uwtable
define hidden noundef i32 @_ZN7Imf_3_431getScanlineChunkOffsetTableSizeERKNS_6HeaderE(ptr noundef nonnull align 8 dereferenceable(49) %0) local_unnamed_addr #5 {
  %2 = tail call noundef nonnull align 4 dereferenceable(16) ptr @_ZNK7Imf_3_46Header10dataWindowEv(ptr noundef nonnull align 8 dereferenceable(49) %0)
  %3 = tail call noundef nonnull align 4 dereferenceable(4) ptr @_ZNK7Imf_3_46Header11compressionEv(ptr noundef nonnull align 8 dereferenceable(49) %0)
  %4 = load i32, ptr %3, align 4, !tbaa !157
  %5 = tail call noundef i32 @_ZN7Imf_3_416numLinesInBufferENS_11CompressionE(i32 noundef %4)
  %6 = sext i32 %5 to i64
  %7 = getelementptr inbounds nuw i8, ptr %2, i64 12
  %8 = load i32, ptr %7, align 4, !tbaa !3
  %9 = sext i32 %8 to i64
  %10 = getelementptr inbounds nuw i8, ptr %2, i64 4
  %11 = load i32, ptr %10, align 4, !tbaa !9
  %12 = sext i32 %11 to i64
  %13 = add nsw i64 %9, %6
  %14 = sub nsw i64 %13, %12
  %15 = sdiv i64 %14, %6
  %16 = trunc i64 %15 to i32
  ret i32 %16
}